; Function Attrs: nounwind uwtable
define i32 @bufferevent_set_timeouts(ptr noundef initializes((336, 368)) %0, ptr noundef readonly captures(address_is_null) %1, ptr noundef readonly captures(address_is_null) %2) local_unnamed_addr #0 {
  %4 = getelementptr inbounds nuw i8, ptr %0, i64 448
  %5 = load ptr, ptr %4, align 8
  %.not = icmp eq ptr %5, null
  br i1 %.not, label %9, label %6

6:                                                ; preds = %3
  %7 = load ptr, ptr getelementptr inbounds nuw (i8, ptr @evthread_lock_fns_, i64 24), align 8
  %8 = tail call i32 %7(i32 noundef 0, ptr noundef nonnull %5) #7
  br label %9

9:                                                ; preds = %6, %3
  %.not24 = icmp eq ptr %1, null
  %10 = getelementptr inbounds nuw i8, ptr %0, i64 336
  br i1 %.not24, label %12, label %11

11:                                               ; preds = %9
  tail call void @llvm.memcpy.p0.p0.i64(ptr noundef nonnull align 8 dereferenceable(16) %10, ptr noundef nonnull align 8 dereferenceable(16) %1, i64 16, i1 false)
  br label %13

12:                                               ; preds = %9
  tail call void @llvm.memset.p0.i64(ptr noundef nonnull align 8 dereferenceable(16) %10, i8 0, i64 16, i1 false)
  br label %13

13:                                               ; preds = %12, %11
  %.not25 = icmp eq ptr %2, null
  %14 = getelementptr inbounds nuw i8, ptr %0, i64 352
  br i1 %.not25, label %16, label %15

15:                                               ; preds = %13
  tail call void @llvm.memcpy.p0.p0.i64(ptr noundef nonnull align 8 dereferenceable(16) %14, ptr noundef nonnull align 8 dereferenceable(16) %2, i64 16, i1 false)
  br label %17

16:                                               ; preds = %13
  tail call void @llvm.memset.p0.i64(ptr noundef nonnull align 8 dereferenceable(16) %14, i8 0, i64 16, i1 false)
  br label %17

17:                                               ; preds = %16, %15
  %18 = getelementptr inbounds nuw i8, ptr %0, i64 8
  %19 = load ptr, ptr %18, align 8
  %20 = getelementptr inbounds nuw i8, ptr %19, i64 48
  %21 = load ptr, ptr %20, align 8
  %.not26 = icmp eq ptr %21, null
  br i1 %.not26, label %24, label %22

22:                                               ; preds = %17
  %23 = tail call i32 %21(ptr noundef nonnull %0) #7
  br label %24

24:                                               ; preds = %17, %22
  %.0 = phi i32 [ %23, %22 ], [ 0, %17 ]
  %25 = load ptr, ptr %4, align 8
  %.not27 = icmp eq ptr %25, null
  br i1 %.not27, label %29, label %26

26:                                               ; preds = %24
  %27 = load ptr, ptr getelementptr inbounds nuw (i8, ptr @evthread_lock_fns_, i64 32), align 8
  %28 = tail call i32 %27(i32 noundef 0, ptr noundef nonnull %25) #7
  br label %29

29:                                               ; preds = %26, %24
  ret i32 %.0
}